MPLINK 5.08, LINKER
Linker Map File - Created Fri Dec 08 08:08:44 2017

                                 Section Info
                  Section       Type    Address   Location Size(Bytes)
                ---------  ---------  ---------  ---------  ---------
             RESET_VECTOR       code   0x000000    program   0x000008
               INT_VECTOR       code   0x000004    program   0x00001e
                    PROG1       code   0x000013    program   0x0001a4
                   .cinit    romdata   0x0000e5    program   0x000004
                     MAIN       code   0x0000e7    program   0x000598
                MAIN_PROG       code   0x0003b3    program   0x000060
.config_2007_BUILD/DEFAULT/PRODUCTION/FINALPR       code   0x002007    program   0x000002
               D_LCD_DATA      udata   0x000020       data   0x000004
                 TEMP_VAR      udata   0x000024       data   0x000012
                   G_DATA      udata   0x000036       data   0x000002
                  INT_VAR      udata   0x000070       data   0x000005



                              Program Memory Usage 
                               Start         End      
                           ---------   ---------      
                            0x000000    0x0003e2      
                            0x002007    0x002007      
            996 out of 8454 program addresses used, program memory utilization is 11%



                              Symbols - Sorted by Name
                     Name    Address   Location    Storage File                     
                ---------  ---------  ---------  --------- ---------                
              AddHundreds   0x000357    program     static E:\FinalProject.X\RPMInterrupt.asm
                  AddTens   0x000361    program     static E:\FinalProject.X\RPMInterrupt.asm
              ClearReturn   0x0003a7    program     static E:\FinalProject.X\RPMInterrupt.asm
                   ClrPer   0x0002c1    program     static E:\FinalProject.X\PercentDrive.asm
             DelayXCycles   0x0000e2    program     static ..\p16f877a_lcdwdbmod.asm
          DisplayHundreds   0x000372    program     static E:\FinalProject.X\RPMInterrupt.asm
              DisplayOnes   0x000392    program     static E:\FinalProject.X\RPMInterrupt.asm
               DisplayRPM   0x00036b    program     static E:\FinalProject.X\RPMInterrupt.asm
              DisplayTens   0x000388    program     static E:\FinalProject.X\RPMInterrupt.asm
            DisplayTenths   0x00039f    program     static E:\FinalProject.X\RPMInterrupt.asm
                 ExitLoop   0x000223    program     static ..\LCDInit.asm           
                    FinRd   0x0000dc    program     static ..\p16f877a_lcdwdbmod.asm
                 Hundreds   0x000340    program     static E:\FinalProject.X\RPMInterrupt.asm
                INTERRUPT   0x000004    program     static E:\FinalProject.X\FinalProject.asm
                  InitLCD   0x0001fb    program     extern ..\LCDInit.asm           
                  LCDBusy   0x0000dd    program     extern ..\p16f877a_lcdwdbmod.asm
                  LCDInit   0x000029    program     extern ..\p16f877a_lcdwdbmod.asm
                LCDLine_1   0x000013    program     extern ..\p16f877a_lcdwdbmod.asm
                LCDLine_2   0x000019    program     extern ..\p16f877a_lcdwdbmod.asm
                  LCDRead   0x00009b    program     static ..\p16f877a_lcdwdbmod.asm
                 LCDWrite   0x000092    program     extern ..\p16f877a_lcdwdbmod.asm
           LCDWriteNibble   0x00006e    program     static ..\p16f877a_lcdwdbmod.asm
               Msg_Lookup   0x00022b    program     static ..\LCDInit.asm           
                Msg_Table   0x000235    program     static ..\LCDInit.asm           
                     Ones   0x000350    program     static E:\FinalProject.X\RPMInterrupt.asm
                      PD1   0x00026a    program     static E:\FinalProject.X\PercentDrive.asm
                      PD2   0x000282    program     static E:\FinalProject.X\PercentDrive.asm
                      PD3   0x00029a    program     static E:\FinalProject.X\PercentDrive.asm
              PercentCalc   0x0001e1    program     static E:\FinalProject.X\PWMCalculator.asm
             PercentDrive   0x000251    program     extern E:\FinalProject.X\PercentDrive.asm
            RPMCalculator   0x000322    program     static E:\FinalProject.X\RPMInterrupt.asm
             RPMInterrupt   0x000300    program     extern E:\FinalProject.X\RPMInterrupt.asm
                   SetPWM   0x0001a4    program     extern E:\FinalProject.X\PWMCalculator.asm
              SetupTimers   0x0002e0    program     extern E:\FinalProject.X\RPMTimer.asm
             SkipableTens   0x000381    program     static E:\FinalProject.X\RPMInterrupt.asm
                     Tens   0x000348    program     static E:\FinalProject.X\RPMInterrupt.asm
                WriteData   0x0002b5    program     static E:\FinalProject.X\PercentDrive.asm
              _PROG1_002C   0x00003f    program     static ..\p16f877a_lcdwdbmod.asm
              _PROG1_0037   0x00004a    program     static ..\p16f877a_lcdwdbmod.asm
                      cf1   0x00014a    program     static ..\ReadKeypad.asm        
                      cf2   0x000155    program     static ..\ReadKeypad.asm        
                 col_find   0x000143    program     static ..\ReadKeypad.asm        
                  convert   0x000114    program     static ..\ReadKeypad.asm        
                  d_write   0x00001f    program     extern ..\p16f877a_lcdwdbmod.asm
                  i_write   0x000025    program     extern ..\p16f877a_lcdwdbmod.asm
                keypad_op   0x000159    program     static ..\ReadKeypad.asm        
                      kp1   0x00011e    program     static ..\ReadKeypad.asm        
                      kp2   0x000129    program     static ..\ReadKeypad.asm        
                      kp3   0x000134    program     static ..\ReadKeypad.asm        
                      kp4   0x00013f    program     static ..\ReadKeypad.asm        
                 kp_table   0x000193    program     static ..\ReadKeypad.asm        
                 kplookup   0x000189    program     static ..\ReadKeypad.asm        
                   kpread   0x0000fe    program     static ..\ReadKeypad.asm        
                  kpreset   0x00016d    program     static ..\ReadKeypad.asm        
                     loop   0x0003da    program     static E:\FinalProject.X\FinalProject.asm
                     loop   0x000208    program     static ..\LCDInit.asm           
                     loop   0x0001b9    program     static E:\FinalProject.X\PWMCalculator.asm
                     loop   0x0000ee    program     static ..\ReadKeypad.asm        
                     read   0x0000e7    program     extern ..\ReadKeypad.asm        
                      rst   0x000165    program     static ..\ReadKeypad.asm        
             setupCCP1CON   0x0001f7    program     static E:\FinalProject.X\PWMCalculator.asm
                    start   0x0003b3    program     static E:\FinalProject.X\FinalProject.asm
                     wait   0x000179    program     static ..\ReadKeypad.asm        
                    ASCII   0x000024       data     extern ..\ReadKeypad.asm        
                  COUNTER   0x000020       data     static ..\p16f877a_lcdwdbmod.asm
                 Overflow   0x000030       data     extern E:\FinalProject.X\RPMInterrupt.asm
                       P1   0x00002b       data     extern E:\FinalProject.X\PercentDrive.asm
                       P2   0x00002d       data     extern E:\FinalProject.X\PercentDrive.asm
               PWMPercent   0x000026       data     extern E:\FinalProject.X\PWMCalculator.asm
              RPMHundreds   0x000031       data     static E:\FinalProject.X\RPMInterrupt.asm
                  RPMOnes   0x000033       data     static E:\FinalProject.X\RPMInterrupt.asm
                  RPMTens   0x000032       data     static E:\FinalProject.X\RPMInterrupt.asm
                RPMTenths   0x000034       data     static E:\FinalProject.X\RPMInterrupt.asm
                      TP1   0x00002c       data     static E:\FinalProject.X\PercentDrive.asm
                      TP2   0x00002e       data     static E:\FinalProject.X\PercentDrive.asm
                TempCount   0x000035       data     static E:\FinalProject.X\RPMInterrupt.asm
                      add   0x000025       data     static ..\ReadKeypad.asm        
                    count   0x000036       data     static ..\LCDInit.asm           
                    delay   0x000021       data     static ..\p16f877a_lcdwdbmod.asm
                  entries   0x00002f       data     extern E:\FinalProject.X\PercentDrive.asm
                     flag   0x000036       data     static ..\LCDInit.asm           
                loopCount   0x000028       data     static E:\FinalProject.X\PWMCalculator.asm
                  pattern   0x000070       data     static ..\ReadKeypad.asm        
              pclath_temp   0x000073       data     static E:\FinalProject.X\FinalProject.asm
              status_temp   0x000072       data     static E:\FinalProject.X\FinalProject.asm
                  t1count   0x000074       data     extern E:\FinalProject.X\FinalProject.asm
                tempCarry   0x000029       data     static E:\FinalProject.X\PWMCalculator.asm
                  tempPWM   0x000027       data     static E:\FinalProject.X\PWMCalculator.asm
               temp_count   0x00002a       data     static ..\LCDInit.asm           
                  temp_rd   0x000023       data     static ..\p16f877a_lcdwdbmod.asm
                  temp_wr   0x000022       data     extern ..\p16f877a_lcdwdbmod.asm
                   w_temp   0x000071       data     static E:\FinalProject.X\FinalProject.asm



                              Symbols - Sorted by Address
                     Name    Address   Location    Storage File                     
                ---------  ---------  ---------  --------- ---------                
                INTERRUPT   0x000004    program     static E:\FinalProject.X\FinalProject.asm
                LCDLine_1   0x000013    program     extern ..\p16f877a_lcdwdbmod.asm
                LCDLine_2   0x000019    program     extern ..\p16f877a_lcdwdbmod.asm
                  d_write   0x00001f    program     extern ..\p16f877a_lcdwdbmod.asm
                  i_write   0x000025    program     extern ..\p16f877a_lcdwdbmod.asm
                  LCDInit   0x000029    program     extern ..\p16f877a_lcdwdbmod.asm
              _PROG1_002C   0x00003f    program     static ..\p16f877a_lcdwdbmod.asm
              _PROG1_0037   0x00004a    program     static ..\p16f877a_lcdwdbmod.asm
           LCDWriteNibble   0x00006e    program     static ..\p16f877a_lcdwdbmod.asm
                 LCDWrite   0x000092    program     extern ..\p16f877a_lcdwdbmod.asm
                  LCDRead   0x00009b    program     static ..\p16f877a_lcdwdbmod.asm
                    FinRd   0x0000dc    program     static ..\p16f877a_lcdwdbmod.asm
                  LCDBusy   0x0000dd    program     extern ..\p16f877a_lcdwdbmod.asm
             DelayXCycles   0x0000e2    program     static ..\p16f877a_lcdwdbmod.asm
                     read   0x0000e7    program     extern ..\ReadKeypad.asm        
                     loop   0x0000ee    program     static ..\ReadKeypad.asm        
                   kpread   0x0000fe    program     static ..\ReadKeypad.asm        
                  convert   0x000114    program     static ..\ReadKeypad.asm        
                      kp1   0x00011e    program     static ..\ReadKeypad.asm        
                      kp2   0x000129    program     static ..\ReadKeypad.asm        
                      kp3   0x000134    program     static ..\ReadKeypad.asm        
                      kp4   0x00013f    program     static ..\ReadKeypad.asm        
                 col_find   0x000143    program     static ..\ReadKeypad.asm        
                      cf1   0x00014a    program     static ..\ReadKeypad.asm        
                      cf2   0x000155    program     static ..\ReadKeypad.asm        
                keypad_op   0x000159    program     static ..\ReadKeypad.asm        
                      rst   0x000165    program     static ..\ReadKeypad.asm        
                  kpreset   0x00016d    program     static ..\ReadKeypad.asm        
                     wait   0x000179    program     static ..\ReadKeypad.asm        
                 kplookup   0x000189    program     static ..\ReadKeypad.asm        
                 kp_table   0x000193    program     static ..\ReadKeypad.asm        
                   SetPWM   0x0001a4    program     extern E:\FinalProject.X\PWMCalculator.asm
                     loop   0x0001b9    program     static E:\FinalProject.X\PWMCalculator.asm
              PercentCalc   0x0001e1    program     static E:\FinalProject.X\PWMCalculator.asm
             setupCCP1CON   0x0001f7    program     static E:\FinalProject.X\PWMCalculator.asm
                  InitLCD   0x0001fb    program     extern ..\LCDInit.asm           
                     loop   0x000208    program     static ..\LCDInit.asm           
                 ExitLoop   0x000223    program     static ..\LCDInit.asm           
               Msg_Lookup   0x00022b    program     static ..\LCDInit.asm           
                Msg_Table   0x000235    program     static ..\LCDInit.asm           
             PercentDrive   0x000251    program     extern E:\FinalProject.X\PercentDrive.asm
                      PD1   0x00026a    program     static E:\FinalProject.X\PercentDrive.asm
                      PD2   0x000282    program     static E:\FinalProject.X\PercentDrive.asm
                      PD3   0x00029a    program     static E:\FinalProject.X\PercentDrive.asm
                WriteData   0x0002b5    program     static E:\FinalProject.X\PercentDrive.asm
                   ClrPer   0x0002c1    program     static E:\FinalProject.X\PercentDrive.asm
              SetupTimers   0x0002e0    program     extern E:\FinalProject.X\RPMTimer.asm
             RPMInterrupt   0x000300    program     extern E:\FinalProject.X\RPMInterrupt.asm
            RPMCalculator   0x000322    program     static E:\FinalProject.X\RPMInterrupt.asm
                 Hundreds   0x000340    program     static E:\FinalProject.X\RPMInterrupt.asm
                     Tens   0x000348    program     static E:\FinalProject.X\RPMInterrupt.asm
                     Ones   0x000350    program     static E:\FinalProject.X\RPMInterrupt.asm
              AddHundreds   0x000357    program     static E:\FinalProject.X\RPMInterrupt.asm
                  AddTens   0x000361    program     static E:\FinalProject.X\RPMInterrupt.asm
               DisplayRPM   0x00036b    program     static E:\FinalProject.X\RPMInterrupt.asm
          DisplayHundreds   0x000372    program     static E:\FinalProject.X\RPMInterrupt.asm
             SkipableTens   0x000381    program     static E:\FinalProject.X\RPMInterrupt.asm
              DisplayTens   0x000388    program     static E:\FinalProject.X\RPMInterrupt.asm
              DisplayOnes   0x000392    program     static E:\FinalProject.X\RPMInterrupt.asm
            DisplayTenths   0x00039f    program     static E:\FinalProject.X\RPMInterrupt.asm
              ClearReturn   0x0003a7    program     static E:\FinalProject.X\RPMInterrupt.asm
                    start   0x0003b3    program     static E:\FinalProject.X\FinalProject.asm
                     loop   0x0003da    program     static E:\FinalProject.X\FinalProject.asm
                  COUNTER   0x000020       data     static ..\p16f877a_lcdwdbmod.asm
                    delay   0x000021       data     static ..\p16f877a_lcdwdbmod.asm
                  temp_wr   0x000022       data     extern ..\p16f877a_lcdwdbmod.asm
                  temp_rd   0x000023       data     static ..\p16f877a_lcdwdbmod.asm
                    ASCII   0x000024       data     extern ..\ReadKeypad.asm        
                      add   0x000025       data     static ..\ReadKeypad.asm        
               PWMPercent   0x000026       data     extern E:\FinalProject.X\PWMCalculator.asm
                  tempPWM   0x000027       data     static E:\FinalProject.X\PWMCalculator.asm
                loopCount   0x000028       data     static E:\FinalProject.X\PWMCalculator.asm
                tempCarry   0x000029       data     static E:\FinalProject.X\PWMCalculator.asm
               temp_count   0x00002a       data     static ..\LCDInit.asm           
                       P1   0x00002b       data     extern E:\FinalProject.X\PercentDrive.asm
                      TP1   0x00002c       data     static E:\FinalProject.X\PercentDrive.asm
                       P2   0x00002d       data     extern E:\FinalProject.X\PercentDrive.asm
                      TP2   0x00002e       data     static E:\FinalProject.X\PercentDrive.asm
                  entries   0x00002f       data     extern E:\FinalProject.X\PercentDrive.asm
                 Overflow   0x000030       data     extern E:\FinalProject.X\RPMInterrupt.asm
              RPMHundreds   0x000031       data     static E:\FinalProject.X\RPMInterrupt.asm
                  RPMTens   0x000032       data     static E:\FinalProject.X\RPMInterrupt.asm
                  RPMOnes   0x000033       data     static E:\FinalProject.X\RPMInterrupt.asm
                RPMTenths   0x000034       data     static E:\FinalProject.X\RPMInterrupt.asm
                TempCount   0x000035       data     static E:\FinalProject.X\RPMInterrupt.asm
                     flag   0x000036       data     static ..\LCDInit.asm           
                    count   0x000036       data     static ..\LCDInit.asm           
                  pattern   0x000070       data     static ..\ReadKeypad.asm        
                   w_temp   0x000071       data     static E:\FinalProject.X\FinalProject.asm
              status_temp   0x000072       data     static E:\FinalProject.X\FinalProject.asm
              pclath_temp   0x000073       data     static E:\FinalProject.X\FinalProject.asm
                  t1count   0x000074       data     extern E:\FinalProject.X\FinalProject.asm


